target datalayout = "e-m:e-p270:32:32-p271:32:32-p272:64:64-i64:64-i128:128-f80:128-n8:16:32:64-S128"
target triple = "x86_64-pc-linux-gnu"

%struct.H5FD_log_fapl_t = type { ptr, i64, i64 }

@H5FD_init_g = external global i8, align 1
@H5_libterm_g = external global i8, align 1
@.str = private unnamed_addr constant [101 x i8] c"generated/home/dtcxzyw/WorkSpace/Projects/compilers/llvm-opt-benchmark/bench/hdf5/hdf5/src/H5FDlog.c\00", align 1
@H5E_RESOURCE_g = external global i64, align 8
@H5E_NOSPACE_g = external global i64, align 8
@__func__.H5FD__log_fapl_copy = private unnamed_addr constant [20 x i8] c"H5FD__log_fapl_copy\00", align 1
@H5E_FILE_g = external global i64, align 8
@H5E_CANTALLOC_g = external global i64, align 8
@.str.9 = private unnamed_addr constant [33 x i8] c"unable to allocate log file FAPL\00", align 1
@.str.10 = private unnamed_addr constant [33 x i8] c"unable to allocate log file name\00", align 1

; Function Attrs: nounwind uwtable
define internal ptr @H5FD__log_fapl_copy(ptr noundef %0) #0 {
  %2 = alloca ptr, align 8
  %3 = alloca ptr, align 8
  %4 = alloca ptr, align 8
  %5 = alloca ptr, align 8
  %6 = alloca i8, align 1
  store ptr %0, ptr %2, align 8, !tbaa !28
  call void @llvm.lifetime.start.p0(i64 8, ptr %3) #9
  %7 = load ptr, ptr %2, align 8, !tbaa !28
  store ptr %7, ptr %3, align 8, !tbaa !29
  call void @llvm.lifetime.start.p0(i64 8, ptr %4) #9
  store ptr null, ptr %4, align 8, !tbaa !29
  call void @llvm.lifetime.start.p0(i64 8, ptr %5) #9
  store ptr null, ptr %5, align 8, !tbaa !28
  call void @llvm.lifetime.start.p0(i64 1, ptr %6) #9
  store i8 0, ptr %6, align 1, !tbaa !7
  %8 = load i8, ptr @H5FD_init_g, align 1, !tbaa !7, !range !9, !noundef !10
  %9 = trunc i8 %8 to i1
  br i1 %9, label %14, label %10

10:                                               ; preds = %1
  %11 = load i8, ptr @H5_libterm_g, align 1, !tbaa !7, !range !9, !noundef !10
  %12 = trunc i8 %11 to i1
  %13 = xor i1 %12, true
  br label %14

14:                                               ; preds = %10, %1
  %15 = phi i1 [ true, %1 ], [ %13, %10 ]
  %16 = xor i1 %15, true
  %17 = xor i1 %16, true
  %18 = zext i1 %17 to i32
  %19 = sext i32 %18 to i64
  %20 = call i64 @llvm.expect.i64(i64 %19, i64 1)
  %21 = icmp ne i64 %20, 0
  br i1 %21, label %22, label %103

22:                                               ; preds = %14
  %23 = call noalias ptr @calloc(i64 noundef 1, i64 noundef 24) #10
  store ptr %23, ptr %4, align 8, !tbaa !29
  %24 = icmp eq ptr null, %23
  br i1 %24, label %25, label %44

25:                                               ; preds = %22
  br label %26

26:                                               ; preds = %25
  br label %27

27:                                               ; preds = %26
  br label %28

28:                                               ; preds = %27
  %29 = load i64, ptr @H5E_FILE_g, align 8, !tbaa !11
  %30 = load i64, ptr @H5E_CANTALLOC_g, align 8, !tbaa !11
  %31 = call i32 (ptr, ptr, i32, i64, i64, ptr, ...) @H5E_printf_stack(ptr noundef @.str, ptr noundef @__func__.H5FD__log_fapl_copy, i32 noundef 345, i64 noundef %29, i64 noundef %30, ptr noundef @.str.9)
  br label %32

32:                                               ; preds = %28
  br label %33

33:                                               ; preds = %32
  store i8 1, ptr %6, align 1, !tbaa !7
  %34 = load i8, ptr %6, align 1, !tbaa !7, !range !9, !noundef !10
  %35 = trunc i8 %34 to i1
  %36 = zext i1 %35 to i8
  store i8 %36, ptr %6, align 1, !tbaa !7
  br label %37

37:                                               ; preds = %33
  br label %38

38:                                               ; preds = %37
  br label %39

39:                                               ; preds = %38
  store ptr null, ptr %5, align 8, !tbaa !28
  br label %81

40:                                               ; No predecessors!
  br label %41

41:                                               ; preds = %40
  br label %42

42:                                               ; preds = %41
  br label %43

43:                                               ; preds = %42
  br label %44

44:                                               ; preds = %43, %22
  %45 = load ptr, ptr %4, align 8, !tbaa !29
  %46 = load ptr, ptr %3, align 8, !tbaa !29
  call void @llvm.memcpy.p0.p0.i64(ptr align 8 %45, ptr align 8 %46, i64 24, i1 false)
  %47 = load ptr, ptr %3, align 8, !tbaa !29
  %48 = getelementptr inbounds nuw %struct.H5FD_log_fapl_t, ptr %47, i32 0, i32 0
  %49 = load ptr, ptr %48, align 8, !tbaa !20
  %50 = icmp ne ptr %49, null
  br i1 %50, label %51, label %79

51:                                               ; preds = %44
  %52 = load ptr, ptr %3, align 8, !tbaa !29
  %53 = getelementptr inbounds nuw %struct.H5FD_log_fapl_t, ptr %52, i32 0, i32 0
  %54 = load ptr, ptr %53, align 8, !tbaa !20
  %55 = call noalias ptr @H5MM_strdup(ptr noundef %54)
  %56 = load ptr, ptr %4, align 8, !tbaa !29
  %57 = getelementptr inbounds nuw %struct.H5FD_log_fapl_t, ptr %56, i32 0, i32 0
  store ptr %55, ptr %57, align 8, !tbaa !20
  %58 = icmp eq ptr null, %55
  br i1 %58, label %59, label %78

59:                                               ; preds = %51
  br label %60

60:                                               ; preds = %59
  br label %61

61:                                               ; preds = %60
  br label %62

62:                                               ; preds = %61
  %63 = load i64, ptr @H5E_RESOURCE_g, align 8, !tbaa !11
  %64 = load i64, ptr @H5E_NOSPACE_g, align 8, !tbaa !11
  %65 = call i32 (ptr, ptr, i32, i64, i64, ptr, ...) @H5E_printf_stack(ptr noundef @.str, ptr noundef @__func__.H5FD__log_fapl_copy, i32 noundef 353, i64 noundef %63, i64 noundef %64, ptr noundef @.str.10)
  br label %66

66:                                               ; preds = %62
  br label %67

67:                                               ; preds = %66
  store i8 1, ptr %6, align 1, !tbaa !7
  %68 = load i8, ptr %6, align 1, !tbaa !7, !range !9, !noundef !10
  %69 = trunc i8 %68 to i1
  %70 = zext i1 %69 to i8
  store i8 %70, ptr %6, align 1, !tbaa !7
  br label %71

71:                                               ; preds = %67
  br label %72

72:                                               ; preds = %71
  br label %73

73:                                               ; preds = %72
  store ptr null, ptr %5, align 8, !tbaa !28
  br label %81

74:                                               ; No predecessors!
  br label %75

75:                                               ; preds = %74
  br label %76

76:                                               ; preds = %75
  br label %77

77:                                               ; preds = %76
  br label %78

78:                                               ; preds = %77, %51
  br label %79

79:                                               ; preds = %78, %44
  %80 = load ptr, ptr %4, align 8, !tbaa !29
  store ptr %80, ptr %5, align 8, !tbaa !28
  br label %81

81:                                               ; preds = %79, %73, %39
  %82 = load ptr, ptr %5, align 8, !tbaa !28
  %83 = icmp eq ptr null, %82
  br i1 %83, label %84, label %102

84:                                               ; preds = %81
  %85 = load ptr, ptr %4, align 8, !tbaa !29
  %86 = icmp ne ptr %85, null
  br i1 %86, label %87, label %101

87:                                               ; preds = %84
  %88 = load ptr, ptr %4, align 8, !tbaa !29
  %89 = getelementptr inbounds nuw %struct.H5FD_log_fapl_t, ptr %88, i32 0, i32 0
  %90 = load ptr, ptr %89, align 8, !tbaa !20
  %91 = icmp ne ptr %90, null
  br i1 %91, label %92, label %99

92:                                               ; preds = %87
  %93 = load ptr, ptr %4, align 8, !tbaa !29
  %94 = getelementptr inbounds nuw %struct.H5FD_log_fapl_t, ptr %93, i32 0, i32 0
  %95 = load ptr, ptr %94, align 8, !tbaa !20
  %96 = call ptr @H5MM_xfree(ptr noundef %95)
  %97 = load ptr, ptr %4, align 8, !tbaa !29
  %98 = getelementptr inbounds nuw %struct.H5FD_log_fapl_t, ptr %97, i32 0, i32 0
  store ptr %96, ptr %98, align 8, !tbaa !20
  br label %99

99:                                               ; preds = %92, %87
  %100 = load ptr, ptr %4, align 8, !tbaa !29
  call void @free(ptr noundef %100) #9
  br label %101

101:                                              ; preds = %99, %84
  br label %102

102:                                              ; preds = %101, %81
  br label %103

103:                                              ; preds = %102, %14
  %104 = load ptr, ptr %5, align 8, !tbaa !28
  call void @llvm.lifetime.end.p0(i64 1, ptr %6) #9
  call void @llvm.lifetime.end.p0(i64 8, ptr %5) #9
  call void @llvm.lifetime.end.p0(i64 8, ptr %4) #9
  call void @llvm.lifetime.end.p0(i64 8, ptr %3) #9
  ret ptr %104
}