; Function Attrs: nounwind uwtable
define internal noalias noundef ptr @H5FD__log_fapl_copy(ptr noundef readonly captures(none) %0) #0 {
  %2 = load i8, ptr @H5FD_init_g, align 1, !tbaa !3, !range !7, !noundef !8
  %3 = trunc nuw i8 %2 to i1
  %4 = load i8, ptr @H5_libterm_g, align 1, !range !7
  %5 = trunc nuw i8 %4 to i1
  %6 = xor i1 %5, true
  %7 = select i1 %3, i1 true, i1 %6
  br i1 %7, label %8, label %.thread, !prof !9

8:                                                ; preds = %1
  %9 = tail call noalias dereferenceable_or_null(24) ptr @calloc(i64 noundef 1, i64 noundef 24) #20
  %10 = icmp eq ptr %9, null
  br i1 %10, label %11, label %15

11:                                               ; preds = %8
  %12 = load i64, ptr @H5E_FILE_g, align 8, !tbaa !10
  %13 = load i64, ptr @H5E_CANTALLOC_g, align 8, !tbaa !10
  %14 = tail call i32 (ptr, ptr, i32, i64, i64, ptr, ...) @H5E_printf_stack(ptr noundef nonnull @.str, ptr noundef nonnull @__func__.H5FD__log_fapl_copy, i32 noundef 345, i64 noundef %12, i64 noundef %13, ptr noundef nonnull @.str.9) #19
  br label %.thread

15:                                               ; preds = %8
  tail call void @llvm.memcpy.p0.p0.i64(ptr noundef nonnull align 8 dereferenceable(24) %9, ptr noundef nonnull align 8 dereferenceable(24) %0, i64 24, i1 false)
  %16 = load ptr, ptr %0, align 8, !tbaa !13
  %.not = icmp eq ptr %16, null
  br i1 %.not, label %.thread, label %17

17:                                               ; preds = %15
  %18 = tail call noalias ptr @H5MM_strdup(ptr noundef nonnull %16) #19
  store ptr %18, ptr %9, align 8, !tbaa !13
  %19 = icmp eq ptr %18, null
  br i1 %19, label %20, label %.thread

20:                                               ; preds = %17
  %21 = load i64, ptr @H5E_RESOURCE_g, align 8, !tbaa !10
  %22 = load i64, ptr @H5E_NOSPACE_g, align 8, !tbaa !10
  %23 = tail call i32 (ptr, ptr, i32, i64, i64, ptr, ...) @H5E_printf_stack(ptr noundef nonnull @.str, ptr noundef nonnull @__func__.H5FD__log_fapl_copy, i32 noundef 353, i64 noundef %21, i64 noundef %22, ptr noundef nonnull @.str.10) #19
  tail call void @free(ptr noundef nonnull %9) #19
  br label %.thread

.thread:                                          ; preds = %11, %15, %17, %20, %1
  %.0 = phi ptr [ null, %20 ], [ null, %1 ], [ %9, %15 ], [ %9, %17 ], [ null, %11 ]
  ret ptr %.0
}